target datalayout = "e-m:e-p270:32:32-p271:32:32-p272:64:64-i64:64-i128:128-f80:128-n8:16:32:64-S128"
target triple = "x86_64-pc-linux-gnu"

%struct.AVFilterContext = type { ptr, ptr, ptr, ptr, ptr, i32, ptr, ptr, i32, ptr, ptr, i32, i32, ptr, ptr, ptr, ptr, i32, ptr, i32, i32 }
%struct.DetelecineContext = type { ptr, i32, ptr, i32, i32, i32, i32, i64, %struct.AVRational, %struct.AVRational, i32, i32, [4 x i32], [4 x i32], [2 x ptr], ptr }
%struct.AVRational = type { i32, i32 }
%struct.AVFilterLink = type { ptr, ptr, ptr, ptr, i32, i32, i32, i32, %struct.AVRational, i32, i32, i32, %struct.AVChannelLayout, %struct.AVRational, ptr, i32, %struct.AVFilterFormatsConfig, %struct.AVFilterFormatsConfig }
%struct.AVChannelLayout = type { i32, i32, %union.anon.1, ptr }
%union.anon.1 = type { i64 }
%struct.AVFilterFormatsConfig = type { ptr, ptr, ptr, ptr, ptr }
%struct.FilterLink = type { %struct.AVFilterLink, ptr, i64, i64, i32, i32, i64, i64, i64, i64, %struct.AVRational, ptr }

@.str.3 = private unnamed_addr constant [73 x i8] c"The input needs a constant frame rate; current rate of %d/%d is invalid\0A\00", align 1
@.str.4 = private unnamed_addr constant [21 x i8] c"FPS: %d/%d -> %d/%d\0A\00", align 1
@.str.5 = private unnamed_addr constant [20 x i8] c"TB: %d/%d -> %d/%d\0A\00", align 1

; Function Attrs: alwaysinline nounwind uwtable
define internal i64 @av_inv_q(i64 %0) #8 {
  %2 = alloca %struct.AVRational, align 4
  %3 = alloca %struct.AVRational, align 4
  store i64 %0, ptr %3, align 4
  %4 = getelementptr inbounds nuw %struct.AVRational, ptr %2, i32 0, i32 0
  %5 = getelementptr inbounds nuw %struct.AVRational, ptr %3, i32 0, i32 1
  %6 = load i32, ptr %5, align 4, !tbaa !91
  store i32 %6, ptr %4, align 4, !tbaa !90
  %7 = getelementptr inbounds nuw %struct.AVRational, ptr %2, i32 0, i32 1
  %8 = getelementptr inbounds nuw %struct.AVRational, ptr %3, i32 0, i32 0
  %9 = load i32, ptr %8, align 4, !tbaa !90
  store i32 %9, ptr %7, align 4, !tbaa !91
  %10 = load i64, ptr %2, align 4
  ret i64 %10
}

; Function Attrs: inlinehint nounwind uwtable
define internal ptr @ff_filter_link(ptr noundef %0) #3 {
  %2 = alloca ptr, align 8
  store ptr %0, ptr %2, align 8, !tbaa !44
  %3 = load ptr, ptr %2, align 8, !tbaa !44
  ret ptr %3
}

; Function Attrs: nounwind uwtable
define internal i32 @config_output(ptr noundef %0) #1 {
  %2 = alloca i32, align 4
  %3 = alloca ptr, align 8
  %4 = alloca ptr, align 8
  %5 = alloca ptr, align 8
  %6 = alloca ptr, align 8
  %7 = alloca ptr, align 8
  %8 = alloca ptr, align 8
  %9 = alloca %struct.AVRational, align 4
  %10 = alloca i32, align 4
  %11 = alloca %struct.AVRational, align 4
  %12 = alloca %struct.AVRational, align 4
  %13 = alloca %struct.AVRational, align 4
  %14 = alloca %struct.AVRational, align 4
  %15 = alloca %struct.AVRational, align 4
  store ptr %0, ptr %3, align 8, !tbaa !44
  call void @llvm.lifetime.start.p0(i64 8, ptr %4) #11
  %16 = load ptr, ptr %3, align 8, !tbaa !44
  %17 = call ptr @ff_filter_link(ptr noundef %16)
  store ptr %17, ptr %4, align 8, !tbaa !55
  call void @llvm.lifetime.start.p0(i64 8, ptr %5) #11
  %18 = load ptr, ptr %3, align 8, !tbaa !44
  %19 = getelementptr inbounds nuw %struct.AVFilterLink, ptr %18, i32 0, i32 0
  %20 = load ptr, ptr %19, align 8, !tbaa !87
  store ptr %20, ptr %5, align 8, !tbaa !4
  call void @llvm.lifetime.start.p0(i64 8, ptr %6) #11
  %21 = load ptr, ptr %5, align 8, !tbaa !4
  %22 = getelementptr inbounds nuw %struct.AVFilterContext, ptr %21, i32 0, i32 9
  %23 = load ptr, ptr %22, align 8, !tbaa !9
  store ptr %23, ptr %6, align 8, !tbaa !22
  call void @llvm.lifetime.start.p0(i64 8, ptr %7) #11
  %24 = load ptr, ptr %5, align 8, !tbaa !4
  %25 = getelementptr inbounds nuw %struct.AVFilterContext, ptr %24, i32 0, i32 4
  %26 = load ptr, ptr %25, align 8, !tbaa !88
  %27 = getelementptr inbounds ptr, ptr %26, i64 0
  %28 = load ptr, ptr %27, align 8, !tbaa !44
  store ptr %28, ptr %7, align 8, !tbaa !44
  call void @llvm.lifetime.start.p0(i64 8, ptr %8) #11
  %29 = load ptr, ptr %5, align 8, !tbaa !4
  %30 = getelementptr inbounds nuw %struct.AVFilterContext, ptr %29, i32 0, i32 4
  %31 = load ptr, ptr %30, align 8, !tbaa !88
  %32 = getelementptr inbounds ptr, ptr %31, i64 0
  %33 = load ptr, ptr %32, align 8, !tbaa !44
  %34 = call ptr @ff_filter_link(ptr noundef %33)
  store ptr %34, ptr %8, align 8, !tbaa !55
  call void @llvm.lifetime.start.p0(i64 8, ptr %9) #11
  %35 = load ptr, ptr %8, align 8, !tbaa !55
  %36 = getelementptr inbounds nuw %struct.FilterLink, ptr %35, i32 0, i32 10
  call void @llvm.memcpy.p0.p0.i64(ptr align 4 %9, ptr align 8 %36, i64 8, i1 false), !tbaa.struct !89
  %37 = getelementptr inbounds nuw %struct.AVRational, ptr %9, i32 0, i32 0
  %38 = load i32, ptr %37, align 4, !tbaa !90
  %39 = icmp ne i32 %38, 0
  br i1 %39, label %40, label %44

40:                                               ; preds = %1
  %41 = getelementptr inbounds nuw %struct.AVRational, ptr %9, i32 0, i32 1
  %42 = load i32, ptr %41, align 4, !tbaa !91
  %43 = icmp ne i32 %42, 0
  br i1 %43, label %50, label %44

44:                                               ; preds = %40, %1
  %45 = load ptr, ptr %5, align 8, !tbaa !4
  %46 = getelementptr inbounds nuw %struct.AVRational, ptr %9, i32 0, i32 0
  %47 = load i32, ptr %46, align 4, !tbaa !90
  %48 = getelementptr inbounds nuw %struct.AVRational, ptr %9, i32 0, i32 1
  %49 = load i32, ptr %48, align 4, !tbaa !91
  call void (ptr, i32, ptr, ...) @av_log(ptr noundef %45, i32 noundef 16, ptr noundef @.str.3, i32 noundef %47, i32 noundef %49)
  store i32 -22, ptr %2, align 4
  store i32 1, ptr %10, align 4
  br label %108

50:                                               ; preds = %40
  call void @llvm.lifetime.start.p0(i64 8, ptr %11) #11
  %51 = load ptr, ptr %6, align 8, !tbaa !22
  %52 = getelementptr inbounds nuw %struct.DetelecineContext, ptr %51, i32 0, i32 8
  %53 = load i64, ptr %52, align 8
  %54 = call i64 @av_inv_q(i64 %53)
  store i64 %54, ptr %12, align 4
  %55 = load i64, ptr %9, align 4
  %56 = load i64, ptr %12, align 4
  %57 = call i64 @av_mul_q(i64 %55, i64 %56) #13
  store i64 %57, ptr %11, align 4
  call void @llvm.memcpy.p0.p0.i64(ptr align 4 %9, ptr align 4 %11, i64 8, i1 false), !tbaa.struct !89
  call void @llvm.lifetime.end.p0(i64 8, ptr %11) #11
  %58 = load ptr, ptr %5, align 8, !tbaa !4
  %59 = load ptr, ptr %8, align 8, !tbaa !55
  %60 = getelementptr inbounds nuw %struct.FilterLink, ptr %59, i32 0, i32 10
  %61 = getelementptr inbounds nuw %struct.AVRational, ptr %60, i32 0, i32 0
  %62 = load i32, ptr %61, align 8, !tbaa !92
  %63 = load ptr, ptr %8, align 8, !tbaa !55
  %64 = getelementptr inbounds nuw %struct.FilterLink, ptr %63, i32 0, i32 10
  %65 = getelementptr inbounds nuw %struct.AVRational, ptr %64, i32 0, i32 1
  %66 = load i32, ptr %65, align 4, !tbaa !93
  %67 = getelementptr inbounds nuw %struct.AVRational, ptr %9, i32 0, i32 0
  %68 = load i32, ptr %67, align 4, !tbaa !90
  %69 = getelementptr inbounds nuw %struct.AVRational, ptr %9, i32 0, i32 1
  %70 = load i32, ptr %69, align 4, !tbaa !91
  call void (ptr, i32, ptr, ...) @av_log(ptr noundef %58, i32 noundef 40, ptr noundef @.str.4, i32 noundef %62, i32 noundef %66, i32 noundef %68, i32 noundef %70)
  %71 = load ptr, ptr %4, align 8, !tbaa !55
  %72 = getelementptr inbounds nuw %struct.FilterLink, ptr %71, i32 0, i32 10
  call void @llvm.memcpy.p0.p0.i64(ptr align 8 %72, ptr align 4 %9, i64 8, i1 false), !tbaa.struct !89
  %73 = load ptr, ptr %3, align 8, !tbaa !44
  %74 = getelementptr inbounds nuw %struct.AVFilterLink, ptr %73, i32 0, i32 13
  call void @llvm.lifetime.start.p0(i64 8, ptr %13) #11
  %75 = load ptr, ptr %7, align 8, !tbaa !44
  %76 = getelementptr inbounds nuw %struct.AVFilterLink, ptr %75, i32 0, i32 13
  %77 = load ptr, ptr %6, align 8, !tbaa !22
  %78 = getelementptr inbounds nuw %struct.DetelecineContext, ptr %77, i32 0, i32 8
  %79 = load i64, ptr %76, align 8
  %80 = load i64, ptr %78, align 8
  %81 = call i64 @av_mul_q(i64 %79, i64 %80) #13
  store i64 %81, ptr %13, align 4
  call void @llvm.memcpy.p0.p0.i64(ptr align 8 %74, ptr align 4 %13, i64 8, i1 false), !tbaa.struct !89
  call void @llvm.lifetime.end.p0(i64 8, ptr %13) #11
  %82 = load ptr, ptr %5, align 8, !tbaa !4
  %83 = load ptr, ptr %7, align 8, !tbaa !44
  %84 = getelementptr inbounds nuw %struct.AVFilterLink, ptr %83, i32 0, i32 13
  %85 = getelementptr inbounds nuw %struct.AVRational, ptr %84, i32 0, i32 0
  %86 = load i32, ptr %85, align 8, !tbaa !94
  %87 = load ptr, ptr %7, align 8, !tbaa !44
  %88 = getelementptr inbounds nuw %struct.AVFilterLink, ptr %87, i32 0, i32 13
  %89 = getelementptr inbounds nuw %struct.AVRational, ptr %88, i32 0, i32 1
  %90 = load i32, ptr %89, align 4, !tbaa !95
  %91 = load ptr, ptr %3, align 8, !tbaa !44
  %92 = getelementptr inbounds nuw %struct.AVFilterLink, ptr %91, i32 0, i32 13
  %93 = getelementptr inbounds nuw %struct.AVRational, ptr %92, i32 0, i32 0
  %94 = load i32, ptr %93, align 8, !tbaa !94
  %95 = load ptr, ptr %3, align 8, !tbaa !44
  %96 = getelementptr inbounds nuw %struct.AVFilterLink, ptr %95, i32 0, i32 13
  %97 = getelementptr inbounds nuw %struct.AVRational, ptr %96, i32 0, i32 1
  %98 = load i32, ptr %97, align 4, !tbaa !95
  call void (ptr, i32, ptr, ...) @av_log(ptr noundef %82, i32 noundef 40, ptr noundef @.str.5, i32 noundef %86, i32 noundef %90, i32 noundef %94, i32 noundef %98)
  %99 = load ptr, ptr %6, align 8, !tbaa !22
  %100 = getelementptr inbounds nuw %struct.DetelecineContext, ptr %99, i32 0, i32 9
  call void @llvm.lifetime.start.p0(i64 8, ptr %14) #11
  %101 = load ptr, ptr %3, align 8, !tbaa !44
  %102 = getelementptr inbounds nuw %struct.AVFilterLink, ptr %101, i32 0, i32 13
  %103 = load i64, ptr %9, align 4
  %104 = load i64, ptr %102, align 8
  %105 = call i64 @av_mul_q(i64 %103, i64 %104) #13
  store i64 %105, ptr %15, align 4
  %106 = load i64, ptr %15, align 4
  %107 = call i64 @av_inv_q(i64 %106)
  store i64 %107, ptr %14, align 4
  call void @llvm.memcpy.p0.p0.i64(ptr align 8 %100, ptr align 4 %14, i64 8, i1 false), !tbaa.struct !89
  call void @llvm.lifetime.end.p0(i64 8, ptr %14) #11
  store i32 0, ptr %2, align 4
  store i32 1, ptr %10, align 4
  br label %108

108:                                              ; preds = %50, %44
  call void @llvm.lifetime.end.p0(i64 8, ptr %9) #11
  call void @llvm.lifetime.end.p0(i64 8, ptr %8) #11
  call void @llvm.lifetime.end.p0(i64 8, ptr %7) #11
  call void @llvm.lifetime.end.p0(i64 8, ptr %6) #11
  call void @llvm.lifetime.end.p0(i64 8, ptr %5) #11
  call void @llvm.lifetime.end.p0(i64 8, ptr %4) #11
  %109 = load i32, ptr %2, align 4
  ret i32 %109
}